target datalayout = "e-m:e-p270:32:32-p271:32:32-p272:64:64-i64:64-i128:128-f80:128-n8:16:32:64-S128"
target triple = "x86_64-pc-linux-gnu"

%struct.TCGHelperInfo = type { ptr, ptr, i64, i64, [14 x %struct.TCGCallArgumentLoc] }
%struct.TCGCallArgumentLoc = type { i32 }

@tcg_ctx = external thread_local global ptr, align 8
@helper_info_gvec_usadd16 = external global %struct.TCGHelperInfo, align 8

; Function Attrs: inlinehint nounwind sspstrong uwtable
define internal ptr @tcgv_i32_temp(ptr noundef %0) #2 {
  %2 = alloca ptr, align 8
  store ptr %0, ptr %2, align 8
  %3 = call align 8 ptr @llvm.threadlocal.address.p0(ptr align 8 @tcg_ctx)
  %4 = load ptr, ptr %3, align 8
  %5 = load ptr, ptr %2, align 8
  %6 = ptrtoint ptr %5 to i64
  %7 = getelementptr inbounds nuw i8, ptr %4, i64 %6
  ret ptr %7
}

; Function Attrs: inlinehint nounwind sspstrong uwtable
define internal ptr @tcgv_ptr_temp(ptr noundef %0) #2 {
  %2 = alloca ptr, align 8
  store ptr %0, ptr %2, align 8
  %3 = load ptr, ptr %2, align 8
  %4 = call ptr @tcgv_i32_temp(ptr noundef %3)
  ret ptr %4
}

; Function Attrs: inlinehint nounwind sspstrong uwtable
define internal void @gen_helper_gvec_usadd16(ptr noundef %0, ptr noundef %1, ptr noundef %2, ptr noundef %3) #2 {
  %5 = alloca ptr, align 8
  %6 = alloca ptr, align 8
  %7 = alloca ptr, align 8
  %8 = alloca ptr, align 8
  store ptr %0, ptr %5, align 8
  store ptr %1, ptr %6, align 8
  store ptr %2, ptr %7, align 8
  store ptr %3, ptr %8, align 8
  %9 = load ptr, ptr @helper_info_gvec_usadd16, align 8
  %10 = load ptr, ptr %5, align 8
  %11 = call ptr @tcgv_ptr_temp(ptr noundef %10)
  %12 = load ptr, ptr %6, align 8
  %13 = call ptr @tcgv_ptr_temp(ptr noundef %12)
  %14 = load ptr, ptr %7, align 8
  %15 = call ptr @tcgv_ptr_temp(ptr noundef %14)
  %16 = load ptr, ptr %8, align 8
  %17 = call ptr @tcgv_i32_temp(ptr noundef %16)
  call void @tcg_gen_call4(ptr noundef %9, ptr noundef @helper_info_gvec_usadd16, ptr noundef null, ptr noundef %11, ptr noundef %13, ptr noundef %15, ptr noundef %17)
  ret void
}